target datalayout = "e-m:e-p270:32:32-p271:32:32-p272:64:64-i64:64-i128:128-f80:128-n8:16:32:64-S128"
target triple = "x86_64-unknown-linux-gnu"

%"class.absl::lts_20230802::log_internal::NullStream" = type { i8 }
%"class.google::protobuf::Reflection" = type { ptr, %"struct.google::protobuf::internal::ReflectionSchema", ptr, ptr, i32, %"class.absl::lts_20230802::once_flag", ptr }
%"struct.google::protobuf::internal::ReflectionSchema" = type { ptr, ptr, ptr, i32, i32, i32, i32, i32, i32, ptr, i32, i32, i32 }
%"class.absl::lts_20230802::once_flag" = type { %"struct.std::atomic.1" }
%"struct.std::atomic.1" = type { %"struct.std::__atomic_base.2" }
%"struct.std::__atomic_base.2" = type { i32 }
%"struct.google::protobuf::internal::TcFieldData" = type { %union.anon.83 }
%union.anon.83 = type { i64 }
%"struct.google::protobuf::internal::TcParseTable" = type <{ %"struct.google::protobuf::internal::TcParseTableBase", %"struct.std::array", %"struct.std::array.84", %"struct.std::array.85", [5 x i8] }>
%"struct.google::protobuf::internal::TcParseTableBase" = type { i16, i16, i32, i8, i16, i32, i32, i16, i16, i32, ptr, ptr }
%"struct.std::array" = type { [1 x %"struct.google::protobuf::internal::TcParseTableBase::FastFieldEntry"] }
%"struct.google::protobuf::internal::TcParseTableBase::FastFieldEntry" = type { %"struct.std::atomic.81", %"struct.google::protobuf::internal::TcFieldData" }
%"struct.std::atomic.81" = type { %"struct.std::__atomic_base.82" }
%"struct.std::__atomic_base.82" = type { ptr }
%"struct.std::array.84" = type { [1 x i16] }
%"struct.std::array.85" = type { [1 x i8] }

; Function Attrs: mustprogress nounwind uwtable
define linkonce_odr hidden void @_ZNSt13__atomic_baseIPFPKcPN6google8protobuf11MessageLiteES1_PNS3_8internal12ParseContextENS6_11TcFieldDataEPKNS6_16TcParseTableBaseEmEEC2ESE_(ptr noundef nonnull align 8 dereferenceable(8) %this, ptr noundef %__p) unnamed_addr #4 comdat align 2 {
entry:
  %this.addr = alloca ptr, align 8
  %__p.addr = alloca ptr, align 8
  store ptr %this, ptr %this.addr, align 8
  store ptr %__p, ptr %__p.addr, align 8
  %this1 = load ptr, ptr %this.addr, align 8
  %_M_p = getelementptr inbounds %"struct.std::__atomic_base.82", ptr %this1, i32 0, i32 0
  %0 = load ptr, ptr %__p.addr, align 8
  store ptr %0, ptr %_M_p, align 8
  ret void
}

; Function Attrs: mustprogress nounwind uwtable
define linkonce_odr hidden void @_ZNSt6atomicIPFPKcPN6google8protobuf11MessageLiteES1_PNS3_8internal12ParseContextENS6_11TcFieldDataEPKNS6_16TcParseTableBaseEmEEC2ESE_(ptr noundef nonnull align 8 dereferenceable(8) %this, ptr noundef %__p) unnamed_addr #4 comdat align 2 {
entry:
  %this.addr = alloca ptr, align 8
  %__p.addr = alloca ptr, align 8
  store ptr %this, ptr %this.addr, align 8
  store ptr %__p, ptr %__p.addr, align 8
  %this1 = load ptr, ptr %this.addr, align 8
  %_M_b = getelementptr inbounds %"struct.std::atomic.81", ptr %this1, i32 0, i32 0
  %0 = load ptr, ptr %__p.addr, align 8
  call void @_ZNSt13__atomic_baseIPFPKcPN6google8protobuf11MessageLiteES1_PNS3_8internal12ParseContextENS6_11TcFieldDataEPKNS6_16TcParseTableBaseEmEEC2ESE_(ptr noundef nonnull align 8 dereferenceable(8) %_M_b, ptr noundef %0) #3
  ret void
}

; Function Attrs: mustprogress nounwind uwtable
define linkonce_odr hidden noundef nonnull align 1 dereferenceable(1) ptr @_ZN4absl12lts_2023080212log_internal10NullStream14InternalStreamEv(ptr noundef nonnull align 1 dereferenceable(1) %this) #4 comdat align 2 {
entry:
  %this.addr = alloca ptr, align 8
  store ptr %this, ptr %this.addr, align 8
  %this1 = load ptr, ptr %this.addr, align 8
  ret ptr %this1
}

; Function Attrs: mustprogress nounwind uwtable
define linkonce_odr hidden void @_ZN6google8protobuf8internal16TcParseTableBase14FastFieldEntryC2EPFPKcPNS0_11MessageLiteES5_PNS1_12ParseContextENS1_11TcFieldDataEPKS2_mESA_(ptr noundef nonnull align 8 dereferenceable(16) %this, ptr noundef %func, i64 %bits.coerce) unnamed_addr #4 comdat align 2 {
entry:
  %bits = alloca %"struct.google::protobuf::internal::TcFieldData", align 8
  %this.addr = alloca ptr, align 8
  %func.addr = alloca ptr, align 8
  %coerce.dive = getelementptr inbounds %"struct.google::protobuf::internal::TcFieldData", ptr %bits, i32 0, i32 0
  %coerce.dive1 = getelementptr inbounds %union.anon.83, ptr %coerce.dive, i32 0, i32 0
  store i64 %bits.coerce, ptr %coerce.dive1, align 8
  store ptr %this, ptr %this.addr, align 8
  store ptr %func, ptr %func.addr, align 8
  %this2 = load ptr, ptr %this.addr, align 8
  %target_atomic = getelementptr inbounds %"struct.google::protobuf::internal::TcParseTableBase::FastFieldEntry", ptr %this2, i32 0, i32 0
  %0 = load ptr, ptr %func.addr, align 8
  call void @_ZNSt6atomicIPFPKcPN6google8protobuf11MessageLiteES1_PNS3_8internal12ParseContextENS6_11TcFieldDataEPKNS6_16TcParseTableBaseEmEEC2ESE_(ptr noundef nonnull align 8 dereferenceable(8) %target_atomic, ptr noundef %0) #3
  %bits3 = getelementptr inbounds %"struct.google::protobuf::internal::TcParseTableBase::FastFieldEntry", ptr %this2, i32 0, i32 1
  call void @llvm.memcpy.p0.p0.i64(ptr align 8 %bits3, ptr align 8 %bits, i64 8, i1 false)
  ret void
}

; Function Attrs: mustprogress nounwind uwtable
define linkonce_odr hidden void @_ZN6google8protobuf8internal11TcFieldDataC2Ev(ptr noundef nonnull align 8 dereferenceable(8) %this) unnamed_addr #4 comdat align 2 {
entry:
  %this.addr = alloca ptr, align 8
  store ptr %this, ptr %this.addr, align 8
  %this1 = load ptr, ptr %this.addr, align 8
  %0 = getelementptr inbounds %"struct.google::protobuf::internal::TcFieldData", ptr %this1, i32 0, i32 0
  store i64 0, ptr %0, align 8
  ret void
}

; Function Attrs: mustprogress nounwind uwtable
define linkonce_odr hidden void @_ZN6google8protobuf8internal16TcParseTableBaseC2EttjhtjjttjPKNS0_11MessageLiteEPFPKcPS3_S7_PNS1_12ParseContextENS1_11TcFieldDataEPKS2_mE(ptr noundef nonnull align 8 dereferenceable(48) %this, i16 noundef zeroext %has_bits_offset, i16 noundef zeroext %extension_offset, i32 noundef %max_field_number, i8 noundef zeroext %fast_idx_mask, i16 noundef zeroext %lookup_table_offset, i32 noundef %skipmap32, i32 noundef %field_entries_offset, i16 noundef zeroext %num_field_entries, i16 noundef zeroext %num_aux_entries, i32 noundef %aux_offset, ptr noundef %default_instance, ptr noundef %fallback) unnamed_addr #4 comdat align 2 {
entry:
  %this.addr = alloca ptr, align 8
  %has_bits_offset.addr = alloca i16, align 2
  %extension_offset.addr = alloca i16, align 2
  %max_field_number.addr = alloca i32, align 4
  %fast_idx_mask.addr = alloca i8, align 1
  %lookup_table_offset.addr = alloca i16, align 2
  %skipmap32.addr = alloca i32, align 4
  %field_entries_offset.addr = alloca i32, align 4
  %num_field_entries.addr = alloca i16, align 2
  %num_aux_entries.addr = alloca i16, align 2
  %aux_offset.addr = alloca i32, align 4
  %default_instance.addr = alloca ptr, align 8
  %fallback.addr = alloca ptr, align 8
  store ptr %this, ptr %this.addr, align 8
  store i16 %has_bits_offset, ptr %has_bits_offset.addr, align 2
  store i16 %extension_offset, ptr %extension_offset.addr, align 2
  store i32 %max_field_number, ptr %max_field_number.addr, align 4
  store i8 %fast_idx_mask, ptr %fast_idx_mask.addr, align 1
  store i16 %lookup_table_offset, ptr %lookup_table_offset.addr, align 2
  store i32 %skipmap32, ptr %skipmap32.addr, align 4
  store i32 %field_entries_offset, ptr %field_entries_offset.addr, align 4
  store i16 %num_field_entries, ptr %num_field_entries.addr, align 2
  store i16 %num_aux_entries, ptr %num_aux_entries.addr, align 2
  store i32 %aux_offset, ptr %aux_offset.addr, align 4
  store ptr %default_instance, ptr %default_instance.addr, align 8
  store ptr %fallback, ptr %fallback.addr, align 8
  %this1 = load ptr, ptr %this.addr, align 8
  %has_bits_offset2 = getelementptr inbounds %"struct.google::protobuf::internal::TcParseTableBase", ptr %this1, i32 0, i32 0
  %0 = load i16, ptr %has_bits_offset.addr, align 2
  store i16 %0, ptr %has_bits_offset2, align 8
  %extension_offset3 = getelementptr inbounds %"struct.google::protobuf::internal::TcParseTableBase", ptr %this1, i32 0, i32 1
  %1 = load i16, ptr %extension_offset.addr, align 2
  store i16 %1, ptr %extension_offset3, align 2
  %max_field_number4 = getelementptr inbounds %"struct.google::protobuf::internal::TcParseTableBase", ptr %this1, i32 0, i32 2
  %2 = load i32, ptr %max_field_number.addr, align 4
  store i32 %2, ptr %max_field_number4, align 4
  %fast_idx_mask5 = getelementptr inbounds %"struct.google::protobuf::internal::TcParseTableBase", ptr %this1, i32 0, i32 3
  %3 = load i8, ptr %fast_idx_mask.addr, align 1
  store i8 %3, ptr %fast_idx_mask5, align 8
  %lookup_table_offset6 = getelementptr inbounds %"struct.google::protobuf::internal::TcParseTableBase", ptr %this1, i32 0, i32 4
  %4 = load i16, ptr %lookup_table_offset.addr, align 2
  store i16 %4, ptr %lookup_table_offset6, align 2
  %skipmap327 = getelementptr inbounds %"struct.google::protobuf::internal::TcParseTableBase", ptr %this1, i32 0, i32 5
  %5 = load i32, ptr %skipmap32.addr, align 4
  store i32 %5, ptr %skipmap327, align 4
  %field_entries_offset8 = getelementptr inbounds %"struct.google::protobuf::internal::TcParseTableBase", ptr %this1, i32 0, i32 6
  %6 = load i32, ptr %field_entries_offset.addr, align 4
  store i32 %6, ptr %field_entries_offset8, align 8
  %num_field_entries9 = getelementptr inbounds %"struct.google::protobuf::internal::TcParseTableBase", ptr %this1, i32 0, i32 7
  %7 = load i16, ptr %num_field_entries.addr, align 2
  store i16 %7, ptr %num_field_entries9, align 4
  %num_aux_entries10 = getelementptr inbounds %"struct.google::protobuf::internal::TcParseTableBase", ptr %this1, i32 0, i32 8
  %8 = load i16, ptr %num_aux_entries.addr, align 2
  store i16 %8, ptr %num_aux_entries10, align 2
  %aux_offset11 = getelementptr inbounds %"struct.google::protobuf::internal::TcParseTableBase", ptr %this1, i32 0, i32 9
  %9 = load i32, ptr %aux_offset.addr, align 4
  store i32 %9, ptr %aux_offset11, align 8
  %default_instance12 = getelementptr inbounds %"struct.google::protobuf::internal::TcParseTableBase", ptr %this1, i32 0, i32 10
  %10 = load ptr, ptr %default_instance.addr, align 8
  store ptr %10, ptr %default_instance12, align 8
  %fallback13 = getelementptr inbounds %"struct.google::protobuf::internal::TcParseTableBase", ptr %this1, i32 0, i32 11
  %11 = load ptr, ptr %fallback.addr, align 8
  store ptr %11, ptr %fallback13, align 8
  ret void
}

; Function Attrs: mustprogress uwtable
define noundef ptr @_ZNK6google8protobuf10Reflection32CreateTcParseTableReflectionOnlyEv(ptr noundef nonnull align 8 dereferenceable(112) %this) #5 align 2 {
entry:
  %this.addr = alloca ptr, align 8
  %p = alloca ptr, align 8
  %full_table = alloca ptr, align 8
  %agg.tmp = alloca %"struct.google::protobuf::internal::TcFieldData", align 8
  %ref.tmp = alloca %"class.absl::lts_20230802::log_internal::NullStream", align 1
  store ptr %this, ptr %this.addr, align 8
  %this1 = load ptr, ptr %this.addr, align 8
  %call = call noalias noundef nonnull ptr @_Znwm(i64 noundef 72) #25
  store ptr %call, ptr %p, align 8
  %0 = load ptr, ptr %p, align 8
  %header = getelementptr inbounds %"struct.google::protobuf::internal::TcParseTable", ptr %0, i32 0, i32 0
  %schema_ = getelementptr inbounds %"class.google::protobuf::Reflection", ptr %this1, i32 0, i32 1
  %default_instance_ = getelementptr inbounds %"struct.google::protobuf::internal::ReflectionSchema", ptr %schema_, i32 0, i32 0
  %1 = load ptr, ptr %default_instance_, align 8
  call void @_ZN6google8protobuf8internal16TcParseTableBaseC2EttjhtjjttjPKNS0_11MessageLiteEPFPKcPS3_S7_PNS1_12ParseContextENS1_11TcFieldDataEPKS2_mE(ptr noundef nonnull align 8 dereferenceable(48) %header, i16 noundef zeroext 0, i16 noundef zeroext 0, i32 noundef 0, i8 noundef zeroext 0, i16 noundef zeroext 0, i32 noundef 0, i32 noundef 0, i16 noundef zeroext 0, i16 noundef zeroext 0, i32 noundef 0, ptr noundef %1, ptr noundef null)
  %fast_entries = getelementptr inbounds %"struct.google::protobuf::internal::TcParseTable", ptr %0, i32 0, i32 1
  %_M_elems = getelementptr inbounds %"struct.std::array", ptr %fast_entries, i32 0, i32 0
  %arrayinit.begin = getelementptr inbounds [1 x %"struct.google::protobuf::internal::TcParseTableBase::FastFieldEntry"], ptr %_M_elems, i64 0, i64 0
  call void @_ZN6google8protobuf8internal11TcFieldDataC2Ev(ptr noundef nonnull align 8 dereferenceable(8) %agg.tmp)
  %coerce.dive = getelementptr inbounds %"struct.google::protobuf::internal::TcFieldData", ptr %agg.tmp, i32 0, i32 0
  %coerce.dive2 = getelementptr inbounds %union.anon.83, ptr %coerce.dive, i32 0, i32 0
  %2 = load i64, ptr %coerce.dive2, align 8
  call void @_ZN6google8protobuf8internal16TcParseTableBase14FastFieldEntryC2EPFPKcPNS0_11MessageLiteES5_PNS1_12ParseContextENS1_11TcFieldDataEPKS2_mESA_(ptr noundef nonnull align 8 dereferenceable(16) %arrayinit.begin, ptr noundef @_ZN6google8protobuf8internal8TcParser19ReflectionParseLoopEPNS0_11MessageLiteEPKcPNS1_12ParseContextENS1_11TcFieldDataEPKNS1_16TcParseTableBaseEm, i64 %2)
  %field_lookup_table = getelementptr inbounds %"struct.google::protobuf::internal::TcParseTable", ptr %0, i32 0, i32 2
  %_M_elems3 = getelementptr inbounds %"struct.std::array.84", ptr %field_lookup_table, i32 0, i32 0
  call void @llvm.memset.p0.i64(ptr align 8 %_M_elems3, i8 0, i64 2, i1 false)
  %field_names = getelementptr inbounds %"struct.google::protobuf::internal::TcParseTable", ptr %0, i32 0, i32 3
  %_M_elems4 = getelementptr inbounds %"struct.std::array.85", ptr %field_names, i32 0, i32 0
  call void @llvm.memset.p0.i64(ptr align 2 %_M_elems4, i8 0, i64 1, i1 false)
  store ptr %0, ptr %full_table, align 8
  br label %while.cond

while.cond:                                       ; preds = %while.body, %entry
  br i1 false, label %while.body, label %while.end

while.body:                                       ; preds = %while.cond
  %call5 = call noundef nonnull align 1 dereferenceable(1) ptr @_ZN4absl12lts_2023080212log_internal10NullStream14InternalStreamEv(ptr noundef nonnull align 1 dereferenceable(1) %ref.tmp)
  br label %while.cond, !llvm.loop !51

while.end:                                        ; preds = %while.cond
  %3 = load ptr, ptr %full_table, align 8
  %header6 = getelementptr inbounds %"struct.google::protobuf::internal::TcParseTable", ptr %3, i32 0, i32 0
  ret ptr %header6
}