; Function Attrs: mustprogress uwtable
define noalias noundef nonnull ptr @_ZNK6google8protobuf10Reflection32CreateTcParseTableReflectionOnlyEv(ptr nocapture noundef nonnull readonly align 8 dereferenceable(112) %this) local_unnamed_addr #4 align 2 {
entry:
  %call = tail call noalias noundef nonnull dereferenceable(72) ptr @_Znwm(i64 noundef 72) #30
  %schema_ = getelementptr inbounds i8, ptr %this, i64 8
  %0 = load ptr, ptr %schema_, align 8
  %lookup_table_offset6.i = getelementptr inbounds i8, ptr %call, i64 10
  %default_instance12.i = getelementptr inbounds i8, ptr %call, i64 32
  tail call void @llvm.memset.p0.i64(ptr noundef nonnull align 8 dereferenceable(9) %call, i8 0, i64 9, i1 false)
  tail call void @llvm.memset.p0.i64(ptr noundef nonnull align 2 dereferenceable(18) %lookup_table_offset6.i, i8 0, i64 18, i1 false)
  store ptr %0, ptr %default_instance12.i, align 8
  %fallback13.i = getelementptr inbounds i8, ptr %call, i64 40
  store ptr null, ptr %fallback13.i, align 8
  %fast_entries = getelementptr inbounds i8, ptr %call, i64 48
  store ptr @_ZN6google8protobuf8internal8TcParser19ReflectionParseLoopEPNS0_11MessageLiteEPKcPNS1_12ParseContextENS1_11TcFieldDataEPKNS1_16TcParseTableBaseEm, ptr %fast_entries, align 8
  %bits3.i = getelementptr inbounds i8, ptr %call, i64 56
  store i64 0, ptr %bits3.i, align 8
  %field_lookup_table = getelementptr inbounds i8, ptr %call, i64 64
  store i16 0, ptr %field_lookup_table, align 8
  %field_names = getelementptr inbounds i8, ptr %call, i64 66
  store i8 0, ptr %field_names, align 2
  ret ptr %call
}